; Function Attrs: nounwind uwtable
define noundef ptr @l_Std_Sat_AIG_RefVec_emptyWithCapacity___rarg___boxed(ptr noundef %0) #1 {
  %2 = ptrtoint ptr %0 to i64
  %3 = and i64 %2, 1
  %.not.i.i = icmp eq i64 %3, 0
  br i1 %.not.i.i, label %4, label %lean_dec.exit

4:                                                ; preds = %1
  tail call void @lean_internal_panic_out_of_memory() #5
  unreachable

lean_dec.exit:                                    ; preds = %1
  %5 = lshr i64 %2, 1
  %6 = shl i64 %5, 3
  %7 = add i64 %6, 24
  %8 = tail call ptr @lean_alloc_object(i64 noundef %7) #4
  store i32 1, ptr %8, align 4, !tbaa !8
  %9 = getelementptr inbounds nuw i8, ptr %8, i64 4
  %10 = load i32, ptr %9, align 4
  %11 = and i32 %10, 65535
  %12 = or disjoint i32 %11, -167772160
  store i32 %12, ptr %9, align 4
  %13 = getelementptr inbounds nuw i8, ptr %8, i64 8
  store i64 0, ptr %13, align 8, !tbaa !12
  %14 = getelementptr inbounds nuw i8, ptr %8, i64 16
  store i64 %5, ptr %14, align 8, !tbaa !12
  ret ptr %8
}